
c_example.elf:     file format elf64-littleriscv


Disassembly of section .text:

0000000000000000 <_start>:
    00:	00001137          	lui	x2,0x1
    04:	E001011b          	addiw	x2,x2,-512
    08:	004000ef          	jal	x1,0000000c <main>

000000000000000c <main>:
    0c:	fe010113          	addi	x2,x2,-32 # fffffe0 <_start-0x30000020>
    10:	00113c23          	sd	x1,24(x2)
    14:	00813823          	sd	x8,16(x2)
    18:	02010413          	addi	x8,x2,32
    1c:	00500793          	li	x15,5
    20:	fef42623          	sw	x15,-20(x8)
    24:	01700793          	li	x15,23
    28:	fef42423          	sw	x15,-24(x8)
    2c:	fe042223          	sw	x0,-28(x8)
    30:	fe842703          	lw	x14,-24(x8)
    34:	fec42783          	lw	x15,-20(x8)
    38:	00070593          	mv	x11,x14
    3c:	00078513          	mv	x10,x15
    40:	028000ef          	jal	x1,00000068 <shiftadd>
    44:	00050793          	mv	x15,x10
    48:	fef42223          	sw	x15,-28(x8)
    4c:	00000793          	li	x15,0
    50:	00078513          	mv	x10,x15
    54:	01813083          	ld	x1,24(x2)
    58:	01013403          	ld	x8,16(x2)
    5c:	02010113          	addi x2,x2,32
	60: 00F00093			addi x1, x0, 15
    64:	00008067          	ret

0000000000000068 <shiftadd>:
    68:	fd010113          	addi	x2,x2,-48
    6c:	02813423          	sd	x8,40(x2)
    70:	03010413          	addi	x8,x2,48
    74:	00050793          	mv	x15,x10
    78:	00058713          	mv	x14,x11
    7c:	fcf42e23          	sw	x15,-36(x8)
    80:	00070793          	mv	x15,x14
    84:	fcf42c23          	sw	x15,-40(x8)
    88:	fdc42783          	lw	x15,-36(x8)
    8c:	0017979b          	slliw	x15,x15,0x1
    90:	fef42623          	sw	x15,-20(x8)
    94:	fec42703          	lw	x14,-20(x8)
    98:	fd842783          	lw	x15,-40(x8)
    9c:	00f707bb          	addw	x15,x14,x15
    a0:	fef42423          	sw	x15,-24(x8)
    a4:	fe842783          	lw	x15,-24(x8)
    a8:	00078513          	mv	x10,x15
    ac:	02813403          	ld	x8,40(x2)
    b0:	03010113          	addi	x2,x2,48
    b4:	00008067          	ret